ccopy_reg
_reconstructor
p0
(cRelation
Relation
p1
c__builtin__
object
p2
Ntp3
Rp4
(dp5
S'cntrDB'
p6
(lp7
I0
aI0
aI0
aI1
aI2
aI2
asS'sortedDB'
p8
(lp9
sS'cntrid'
p10
I6
sS'lastid'
p11
I6
sS'ctid'
p12
I6
sS'ctDB'
p13
(lp14
I0
aI1
aI2
aI3
aI4
aI5
asb.